
vuln:     file format elf32-i386


Disassembly of section .init:

080483e8 <_init>:
 80483e8:	53                   	push   ebx
 80483e9:	83 ec 08             	sub    esp,0x8
 80483ec:	e8 2f 01 00 00       	call   8048520 <__x86.get_pc_thunk.bx>
 80483f1:	81 c3 0f 1c 00 00    	add    ebx,0x1c0f
 80483f7:	8b 83 f8 ff ff ff    	mov    eax,DWORD PTR [ebx-0x8]
 80483fd:	85 c0                	test   eax,eax
 80483ff:	74 05                	je     8048406 <_init+0x1e>
 8048401:	e8 ba 00 00 00       	call   80484c0 <__gmon_start__@plt>
 8048406:	83 c4 08             	add    esp,0x8
 8048409:	5b                   	pop    ebx
 804840a:	c3                   	ret    

Disassembly of section .plt:

08048410 <.plt>:
 8048410:	ff 35 04 a0 04 08    	push   DWORD PTR ds:0x804a004
 8048416:	ff 25 08 a0 04 08    	jmp    DWORD PTR ds:0x804a008
 804841c:	00 00                	add    BYTE PTR [eax],al
	...

08048420 <printf@plt>:
 8048420:	ff 25 0c a0 04 08    	jmp    DWORD PTR ds:0x804a00c
 8048426:	68 00 00 00 00       	push   0x0
 804842b:	e9 e0 ff ff ff       	jmp    8048410 <.plt>

08048430 <gets@plt>:
 8048430:	ff 25 10 a0 04 08    	jmp    DWORD PTR ds:0x804a010
 8048436:	68 08 00 00 00       	push   0x8
 804843b:	e9 d0 ff ff ff       	jmp    8048410 <.plt>

08048440 <fgets@plt>:
 8048440:	ff 25 14 a0 04 08    	jmp    DWORD PTR ds:0x804a014
 8048446:	68 10 00 00 00       	push   0x10
 804844b:	e9 c0 ff ff ff       	jmp    8048410 <.plt>

08048450 <getegid@plt>:
 8048450:	ff 25 18 a0 04 08    	jmp    DWORD PTR ds:0x804a018
 8048456:	68 18 00 00 00       	push   0x18
 804845b:	e9 b0 ff ff ff       	jmp    8048410 <.plt>

08048460 <puts@plt>:
 8048460:	ff 25 1c a0 04 08    	jmp    DWORD PTR ds:0x804a01c
 8048466:	68 20 00 00 00       	push   0x20
 804846b:	e9 a0 ff ff ff       	jmp    8048410 <.plt>

08048470 <exit@plt>:
 8048470:	ff 25 20 a0 04 08    	jmp    DWORD PTR ds:0x804a020
 8048476:	68 28 00 00 00       	push   0x28
 804847b:	e9 90 ff ff ff       	jmp    8048410 <.plt>

08048480 <__libc_start_main@plt>:
 8048480:	ff 25 24 a0 04 08    	jmp    DWORD PTR ds:0x804a024
 8048486:	68 30 00 00 00       	push   0x30
 804848b:	e9 80 ff ff ff       	jmp    8048410 <.plt>

08048490 <setvbuf@plt>:
 8048490:	ff 25 28 a0 04 08    	jmp    DWORD PTR ds:0x804a028
 8048496:	68 38 00 00 00       	push   0x38
 804849b:	e9 70 ff ff ff       	jmp    8048410 <.plt>

080484a0 <fopen@plt>:
 80484a0:	ff 25 2c a0 04 08    	jmp    DWORD PTR ds:0x804a02c
 80484a6:	68 40 00 00 00       	push   0x40
 80484ab:	e9 60 ff ff ff       	jmp    8048410 <.plt>

080484b0 <setresgid@plt>:
 80484b0:	ff 25 30 a0 04 08    	jmp    DWORD PTR ds:0x804a030
 80484b6:	68 48 00 00 00       	push   0x48
 80484bb:	e9 50 ff ff ff       	jmp    8048410 <.plt>

Disassembly of section .plt.got:

080484c0 <__gmon_start__@plt>:
 80484c0:	ff 25 f8 9f 04 08    	jmp    DWORD PTR ds:0x8049ff8
 80484c6:	66 90                	xchg   ax,ax

Disassembly of section .text:

080484d0 <_start>:
 80484d0:	31 ed                	xor    ebp,ebp
 80484d2:	5e                   	pop    esi
 80484d3:	89 e1                	mov    ecx,esp
 80484d5:	83 e4 f0             	and    esp,0xfffffff0
 80484d8:	50                   	push   eax
 80484d9:	54                   	push   esp
 80484da:	52                   	push   edx
 80484db:	e8 23 00 00 00       	call   8048503 <_start+0x33>
 80484e0:	81 c3 20 1b 00 00    	add    ebx,0x1b20
 80484e6:	8d 83 80 e7 ff ff    	lea    eax,[ebx-0x1880]
 80484ec:	50                   	push   eax
 80484ed:	8d 83 20 e7 ff ff    	lea    eax,[ebx-0x18e0]
 80484f3:	50                   	push   eax
 80484f4:	51                   	push   ecx
 80484f5:	56                   	push   esi
 80484f6:	c7 c0 9e 86 04 08    	mov    eax,0x804869e
 80484fc:	50                   	push   eax
 80484fd:	e8 7e ff ff ff       	call   8048480 <__libc_start_main@plt>
 8048502:	f4                   	hlt    
 8048503:	8b 1c 24             	mov    ebx,DWORD PTR [esp]
 8048506:	c3                   	ret    
 8048507:	66 90                	xchg   ax,ax
 8048509:	66 90                	xchg   ax,ax
 804850b:	66 90                	xchg   ax,ax
 804850d:	66 90                	xchg   ax,ax
 804850f:	90                   	nop

08048510 <_dl_relocate_static_pie>:
 8048510:	f3 c3                	repz ret 
 8048512:	66 90                	xchg   ax,ax
 8048514:	66 90                	xchg   ax,ax
 8048516:	66 90                	xchg   ax,ax
 8048518:	66 90                	xchg   ax,ax
 804851a:	66 90                	xchg   ax,ax
 804851c:	66 90                	xchg   ax,ax
 804851e:	66 90                	xchg   ax,ax

08048520 <__x86.get_pc_thunk.bx>:
 8048520:	8b 1c 24             	mov    ebx,DWORD PTR [esp]
 8048523:	c3                   	ret    
 8048524:	66 90                	xchg   ax,ax
 8048526:	66 90                	xchg   ax,ax
 8048528:	66 90                	xchg   ax,ax
 804852a:	66 90                	xchg   ax,ax
 804852c:	66 90                	xchg   ax,ax
 804852e:	66 90                	xchg   ax,ax

08048530 <deregister_tm_clones>:
 8048530:	b8 3c a0 04 08       	mov    eax,0x804a03c
 8048535:	3d 3c a0 04 08       	cmp    eax,0x804a03c
 804853a:	74 24                	je     8048560 <deregister_tm_clones+0x30>
 804853c:	b8 00 00 00 00       	mov    eax,0x0
 8048541:	85 c0                	test   eax,eax
 8048543:	74 1b                	je     8048560 <deregister_tm_clones+0x30>
 8048545:	55                   	push   ebp
 8048546:	89 e5                	mov    ebp,esp
 8048548:	83 ec 14             	sub    esp,0x14
 804854b:	68 3c a0 04 08       	push   0x804a03c
 8048550:	ff d0                	call   eax
 8048552:	83 c4 10             	add    esp,0x10
 8048555:	c9                   	leave  
 8048556:	c3                   	ret    
 8048557:	89 f6                	mov    esi,esi
 8048559:	8d bc 27 00 00 00 00 	lea    edi,[edi+eiz*1+0x0]
 8048560:	f3 c3                	repz ret 
 8048562:	8d b4 26 00 00 00 00 	lea    esi,[esi+eiz*1+0x0]
 8048569:	8d bc 27 00 00 00 00 	lea    edi,[edi+eiz*1+0x0]

08048570 <register_tm_clones>:
 8048570:	b8 3c a0 04 08       	mov    eax,0x804a03c
 8048575:	2d 3c a0 04 08       	sub    eax,0x804a03c
 804857a:	c1 f8 02             	sar    eax,0x2
 804857d:	89 c2                	mov    edx,eax
 804857f:	c1 ea 1f             	shr    edx,0x1f
 8048582:	01 d0                	add    eax,edx
 8048584:	d1 f8                	sar    eax,1
 8048586:	74 20                	je     80485a8 <register_tm_clones+0x38>
 8048588:	ba 00 00 00 00       	mov    edx,0x0
 804858d:	85 d2                	test   edx,edx
 804858f:	74 17                	je     80485a8 <register_tm_clones+0x38>
 8048591:	55                   	push   ebp
 8048592:	89 e5                	mov    ebp,esp
 8048594:	83 ec 10             	sub    esp,0x10
 8048597:	50                   	push   eax
 8048598:	68 3c a0 04 08       	push   0x804a03c
 804859d:	ff d2                	call   edx
 804859f:	83 c4 10             	add    esp,0x10
 80485a2:	c9                   	leave  
 80485a3:	c3                   	ret    
 80485a4:	8d 74 26 00          	lea    esi,[esi+eiz*1+0x0]
 80485a8:	f3 c3                	repz ret 
 80485aa:	8d b6 00 00 00 00    	lea    esi,[esi+0x0]

080485b0 <__do_global_dtors_aux>:
 80485b0:	80 3d 3c a0 04 08 00 	cmp    BYTE PTR ds:0x804a03c,0x0
 80485b7:	75 17                	jne    80485d0 <__do_global_dtors_aux+0x20>
 80485b9:	55                   	push   ebp
 80485ba:	89 e5                	mov    ebp,esp
 80485bc:	83 ec 08             	sub    esp,0x8
 80485bf:	e8 6c ff ff ff       	call   8048530 <deregister_tm_clones>
 80485c4:	c6 05 3c a0 04 08 01 	mov    BYTE PTR ds:0x804a03c,0x1
 80485cb:	c9                   	leave  
 80485cc:	c3                   	ret    
 80485cd:	8d 76 00             	lea    esi,[esi+0x0]
 80485d0:	f3 c3                	repz ret 
 80485d2:	8d b4 26 00 00 00 00 	lea    esi,[esi+eiz*1+0x0]
 80485d9:	8d bc 27 00 00 00 00 	lea    edi,[edi+eiz*1+0x0]

080485e0 <frame_dummy>:
 80485e0:	55                   	push   ebp
 80485e1:	89 e5                	mov    ebp,esp
 80485e3:	5d                   	pop    ebp
 80485e4:	eb 8a                	jmp    8048570 <register_tm_clones>

080485e6 <flag>:
 80485e6:	55                   	push   ebp
 80485e7:	89 e5                	mov    ebp,esp
 80485e9:	53                   	push   ebx
 80485ea:	83 ec 54             	sub    esp,0x54
 80485ed:	e8 2e ff ff ff       	call   8048520 <__x86.get_pc_thunk.bx>
 80485f2:	81 c3 0e 1a 00 00    	add    ebx,0x1a0e
 80485f8:	83 ec 08             	sub    esp,0x8
 80485fb:	8d 83 a0 e7 ff ff    	lea    eax,[ebx-0x1860]
 8048601:	50                   	push   eax
 8048602:	8d 83 a2 e7 ff ff    	lea    eax,[ebx-0x185e]
 8048608:	50                   	push   eax
 8048609:	e8 92 fe ff ff       	call   80484a0 <fopen@plt>
 804860e:	83 c4 10             	add    esp,0x10
 8048611:	89 45 f4             	mov    DWORD PTR [ebp-0xc],eax
 8048614:	83 7d f4 00          	cmp    DWORD PTR [ebp-0xc],0x0
 8048618:	75 1c                	jne    8048636 <flag+0x50>
 804861a:	83 ec 0c             	sub    esp,0xc
 804861d:	8d 83 ac e7 ff ff    	lea    eax,[ebx-0x1854]
 8048623:	50                   	push   eax
 8048624:	e8 37 fe ff ff       	call   8048460 <puts@plt>
 8048629:	83 c4 10             	add    esp,0x10
 804862c:	83 ec 0c             	sub    esp,0xc
 804862f:	6a 00                	push   0x0
 8048631:	e8 3a fe ff ff       	call   8048470 <exit@plt>
 8048636:	83 ec 04             	sub    esp,0x4
 8048639:	ff 75 f4             	push   DWORD PTR [ebp-0xc]
 804863c:	6a 40                	push   0x40
 804863e:	8d 45 b4             	lea    eax,[ebp-0x4c]
 8048641:	50                   	push   eax
 8048642:	e8 f9 fd ff ff       	call   8048440 <fgets@plt>
 8048647:	83 c4 10             	add    esp,0x10
 804864a:	83 ec 0c             	sub    esp,0xc
 804864d:	8d 45 b4             	lea    eax,[ebp-0x4c]
 8048650:	50                   	push   eax
 8048651:	e8 ca fd ff ff       	call   8048420 <printf@plt>
 8048656:	83 c4 10             	add    esp,0x10
 8048659:	90                   	nop
 804865a:	8b 5d fc             	mov    ebx,DWORD PTR [ebp-0x4]
 804865d:	c9                   	leave  
 804865e:	c3                   	ret    

0804865f <vuln>:
 804865f:	55                   	push   ebp
 8048660:	89 e5                	mov    ebp,esp
 8048662:	53                   	push   ebx
 8048663:	83 ec 44             	sub    esp,0x44
 8048666:	e8 b5 fe ff ff       	call   8048520 <__x86.get_pc_thunk.bx>
 804866b:	81 c3 95 19 00 00    	add    ebx,0x1995
 8048671:	83 ec 0c             	sub    esp,0xc
 8048674:	8d 45 b8             	lea    eax,[ebp-0x48]
 8048677:	50                   	push   eax
 8048678:	e8 b3 fd ff ff       	call   8048430 <gets@plt>
 804867d:	83 c4 10             	add    esp,0x10
 8048680:	e8 8f 00 00 00       	call   8048714 <get_return_address>
 8048685:	83 ec 08             	sub    esp,0x8
 8048688:	50                   	push   eax
 8048689:	8d 83 07 e8 ff ff    	lea    eax,[ebx-0x17f9]
 804868f:	50                   	push   eax
 8048690:	e8 8b fd ff ff       	call   8048420 <printf@plt>
 8048695:	83 c4 10             	add    esp,0x10
 8048698:	90                   	nop
 8048699:	8b 5d fc             	mov    ebx,DWORD PTR [ebp-0x4]
 804869c:	c9                   	leave  
 804869d:	c3                   	ret    

0804869e <main>:
 804869e:	8d 4c 24 04          	lea    ecx,[esp+0x4]
 80486a2:	83 e4 f0             	and    esp,0xfffffff0
 80486a5:	ff 71 fc             	push   DWORD PTR [ecx-0x4]
 80486a8:	55                   	push   ebp
 80486a9:	89 e5                	mov    ebp,esp
 80486ab:	53                   	push   ebx
 80486ac:	51                   	push   ecx
 80486ad:	83 ec 10             	sub    esp,0x10
 80486b0:	e8 6b fe ff ff       	call   8048520 <__x86.get_pc_thunk.bx>
 80486b5:	81 c3 4b 19 00 00    	add    ebx,0x194b
 80486bb:	8b 83 fc ff ff ff    	mov    eax,DWORD PTR [ebx-0x4]
 80486c1:	8b 00                	mov    eax,DWORD PTR [eax]
 80486c3:	6a 00                	push   0x0
 80486c5:	6a 02                	push   0x2
 80486c7:	6a 00                	push   0x0
 80486c9:	50                   	push   eax
 80486ca:	e8 c1 fd ff ff       	call   8048490 <setvbuf@plt>
 80486cf:	83 c4 10             	add    esp,0x10
 80486d2:	e8 79 fd ff ff       	call   8048450 <getegid@plt>
 80486d7:	89 45 f4             	mov    DWORD PTR [ebp-0xc],eax
 80486da:	83 ec 04             	sub    esp,0x4
 80486dd:	ff 75 f4             	push   DWORD PTR [ebp-0xc]
 80486e0:	ff 75 f4             	push   DWORD PTR [ebp-0xc]
 80486e3:	ff 75 f4             	push   DWORD PTR [ebp-0xc]
 80486e6:	e8 c5 fd ff ff       	call   80484b0 <setresgid@plt>
 80486eb:	83 c4 10             	add    esp,0x10
 80486ee:	83 ec 0c             	sub    esp,0xc
 80486f1:	8d 83 28 e8 ff ff    	lea    eax,[ebx-0x17d8]
 80486f7:	50                   	push   eax
 80486f8:	e8 63 fd ff ff       	call   8048460 <puts@plt>
 80486fd:	83 c4 10             	add    esp,0x10
 8048700:	e8 5a ff ff ff       	call   804865f <vuln>
 8048705:	b8 00 00 00 00       	mov    eax,0x0
 804870a:	8d 65 f8             	lea    esp,[ebp-0x8]
 804870d:	59                   	pop    ecx
 804870e:	5b                   	pop    ebx
 804870f:	5d                   	pop    ebp
 8048710:	8d 61 fc             	lea    esp,[ecx-0x4]
 8048713:	c3                   	ret    

08048714 <get_return_address>:
 8048714:	8b 45 04             	mov    eax,DWORD PTR [ebp+0x4]
 8048717:	c3                   	ret    
 8048718:	66 90                	xchg   ax,ax
 804871a:	66 90                	xchg   ax,ax
 804871c:	66 90                	xchg   ax,ax
 804871e:	66 90                	xchg   ax,ax

08048720 <__libc_csu_init>:
 8048720:	55                   	push   ebp
 8048721:	57                   	push   edi
 8048722:	56                   	push   esi
 8048723:	53                   	push   ebx
 8048724:	e8 f7 fd ff ff       	call   8048520 <__x86.get_pc_thunk.bx>
 8048729:	81 c3 d7 18 00 00    	add    ebx,0x18d7
 804872f:	83 ec 0c             	sub    esp,0xc
 8048732:	8b 6c 24 28          	mov    ebp,DWORD PTR [esp+0x28]
 8048736:	8d b3 0c ff ff ff    	lea    esi,[ebx-0xf4]
 804873c:	e8 a7 fc ff ff       	call   80483e8 <_init>
 8048741:	8d 83 08 ff ff ff    	lea    eax,[ebx-0xf8]
 8048747:	29 c6                	sub    esi,eax
 8048749:	c1 fe 02             	sar    esi,0x2
 804874c:	85 f6                	test   esi,esi
 804874e:	74 25                	je     8048775 <__libc_csu_init+0x55>
 8048750:	31 ff                	xor    edi,edi
 8048752:	8d b6 00 00 00 00    	lea    esi,[esi+0x0]
 8048758:	83 ec 04             	sub    esp,0x4
 804875b:	55                   	push   ebp
 804875c:	ff 74 24 2c          	push   DWORD PTR [esp+0x2c]
 8048760:	ff 74 24 2c          	push   DWORD PTR [esp+0x2c]
 8048764:	ff 94 bb 08 ff ff ff 	call   DWORD PTR [ebx+edi*4-0xf8]
 804876b:	83 c7 01             	add    edi,0x1
 804876e:	83 c4 10             	add    esp,0x10
 8048771:	39 fe                	cmp    esi,edi
 8048773:	75 e3                	jne    8048758 <__libc_csu_init+0x38>
 8048775:	83 c4 0c             	add    esp,0xc
 8048778:	5b                   	pop    ebx
 8048779:	5e                   	pop    esi
 804877a:	5f                   	pop    edi
 804877b:	5d                   	pop    ebp
 804877c:	c3                   	ret    
 804877d:	8d 76 00             	lea    esi,[esi+0x0]

08048780 <__libc_csu_fini>:
 8048780:	f3 c3                	repz ret 

Disassembly of section .fini:

08048784 <_fini>:
 8048784:	53                   	push   ebx
 8048785:	83 ec 08             	sub    esp,0x8
 8048788:	e8 93 fd ff ff       	call   8048520 <__x86.get_pc_thunk.bx>
 804878d:	81 c3 73 18 00 00    	add    ebx,0x1873
 8048793:	83 c4 08             	add    esp,0x8
 8048796:	5b                   	pop    ebx
 8048797:	c3                   	ret    
