
a.out:     file format elf64-x86-64


Disassembly of section .init:

0000000000001000 <_init>:
    1000:	48 83 ec 08          	sub    rsp,0x8
    1004:	48 8b 05 dd 2f 00 00 	mov    rax,QWORD PTR [rip+0x2fdd]        # 3fe8 <__gmon_start__>
    100b:	48 85 c0             	test   rax,rax
    100e:	74 02                	je     1012 <_init+0x12>
    1010:	ff d0                	call   rax
    1012:	48 83 c4 08          	add    rsp,0x8
    1016:	c3                   	ret    

Disassembly of section .plt:

0000000000001020 <.plt>:
    1020:	ff 35 92 2f 00 00    	push   QWORD PTR [rip+0x2f92]        # 3fb8 <_GLOBAL_OFFSET_TABLE_+0x8>
    1026:	ff 25 94 2f 00 00    	jmp    QWORD PTR [rip+0x2f94]        # 3fc0 <_GLOBAL_OFFSET_TABLE_+0x10>
    102c:	0f 1f 40 00          	nop    DWORD PTR [rax+0x0]

0000000000001030 <strcpy@plt>:
    1030:	ff 25 92 2f 00 00    	jmp    QWORD PTR [rip+0x2f92]        # 3fc8 <strcpy@GLIBC_2.2.5>
    1036:	68 00 00 00 00       	push   0x0
    103b:	e9 e0 ff ff ff       	jmp    1020 <.plt>

0000000000001040 <__stack_chk_fail@plt>:
    1040:	ff 25 8a 2f 00 00    	jmp    QWORD PTR [rip+0x2f8a]        # 3fd0 <__stack_chk_fail@GLIBC_2.4>
    1046:	68 01 00 00 00       	push   0x1
    104b:	e9 d0 ff ff ff       	jmp    1020 <.plt>

Disassembly of section .plt.got:

0000000000001050 <__cxa_finalize@plt>:
    1050:	ff 25 a2 2f 00 00    	jmp    QWORD PTR [rip+0x2fa2]        # 3ff8 <__cxa_finalize@GLIBC_2.2.5>
    1056:	66 90                	xchg   ax,ax

Disassembly of section .text:

0000000000001060 <_start>:
    1060:	31 ed                	xor    ebp,ebp
    1062:	49 89 d1             	mov    r9,rdx
    1065:	5e                   	pop    rsi
    1066:	48 89 e2             	mov    rdx,rsp
    1069:	48 83 e4 f0          	and    rsp,0xfffffffffffffff0
    106d:	50                   	push   rax
    106e:	54                   	push   rsp
    106f:	4c 8d 05 ea 01 00 00 	lea    r8,[rip+0x1ea]        # 1260 <__libc_csu_fini>
    1076:	48 8d 0d 83 01 00 00 	lea    rcx,[rip+0x183]        # 1200 <__libc_csu_init>
    107d:	48 8d 3d 06 01 00 00 	lea    rdi,[rip+0x106]        # 118a <main>
    1084:	ff 15 56 2f 00 00    	call   QWORD PTR [rip+0x2f56]        # 3fe0 <__libc_start_main@GLIBC_2.2.5>
    108a:	f4                   	hlt    
    108b:	0f 1f 44 00 00       	nop    DWORD PTR [rax+rax*1+0x0]

0000000000001090 <deregister_tm_clones>:
    1090:	48 8d 3d 79 2f 00 00 	lea    rdi,[rip+0x2f79]        # 4010 <__TMC_END__>
    1097:	48 8d 05 72 2f 00 00 	lea    rax,[rip+0x2f72]        # 4010 <__TMC_END__>
    109e:	48 39 f8             	cmp    rax,rdi
    10a1:	74 15                	je     10b8 <deregister_tm_clones+0x28>
    10a3:	48 8b 05 2e 2f 00 00 	mov    rax,QWORD PTR [rip+0x2f2e]        # 3fd8 <_ITM_deregisterTMCloneTable>
    10aa:	48 85 c0             	test   rax,rax
    10ad:	74 09                	je     10b8 <deregister_tm_clones+0x28>
    10af:	ff e0                	jmp    rax
    10b1:	0f 1f 80 00 00 00 00 	nop    DWORD PTR [rax+0x0]
    10b8:	c3                   	ret    
    10b9:	0f 1f 80 00 00 00 00 	nop    DWORD PTR [rax+0x0]

00000000000010c0 <register_tm_clones>:
    10c0:	48 8d 3d 49 2f 00 00 	lea    rdi,[rip+0x2f49]        # 4010 <__TMC_END__>
    10c7:	48 8d 35 42 2f 00 00 	lea    rsi,[rip+0x2f42]        # 4010 <__TMC_END__>
    10ce:	48 29 fe             	sub    rsi,rdi
    10d1:	48 c1 fe 03          	sar    rsi,0x3
    10d5:	48 89 f0             	mov    rax,rsi
    10d8:	48 c1 e8 3f          	shr    rax,0x3f
    10dc:	48 01 c6             	add    rsi,rax
    10df:	48 d1 fe             	sar    rsi,1
    10e2:	74 14                	je     10f8 <register_tm_clones+0x38>
    10e4:	48 8b 05 05 2f 00 00 	mov    rax,QWORD PTR [rip+0x2f05]        # 3ff0 <_ITM_registerTMCloneTable>
    10eb:	48 85 c0             	test   rax,rax
    10ee:	74 08                	je     10f8 <register_tm_clones+0x38>
    10f0:	ff e0                	jmp    rax
    10f2:	66 0f 1f 44 00 00    	nop    WORD PTR [rax+rax*1+0x0]
    10f8:	c3                   	ret    
    10f9:	0f 1f 80 00 00 00 00 	nop    DWORD PTR [rax+0x0]

0000000000001100 <__do_global_dtors_aux>:
    1100:	80 3d 09 2f 00 00 00 	cmp    BYTE PTR [rip+0x2f09],0x0        # 4010 <__TMC_END__>
    1107:	75 2f                	jne    1138 <__do_global_dtors_aux+0x38>
    1109:	55                   	push   rbp
    110a:	48 83 3d e6 2e 00 00 	cmp    QWORD PTR [rip+0x2ee6],0x0        # 3ff8 <__cxa_finalize@GLIBC_2.2.5>
    1111:	00 
    1112:	48 89 e5             	mov    rbp,rsp
    1115:	74 0c                	je     1123 <__do_global_dtors_aux+0x23>
    1117:	48 8b 3d ea 2e 00 00 	mov    rdi,QWORD PTR [rip+0x2eea]        # 4008 <__dso_handle>
    111e:	e8 2d ff ff ff       	call   1050 <__cxa_finalize@plt>
    1123:	e8 68 ff ff ff       	call   1090 <deregister_tm_clones>
    1128:	c6 05 e1 2e 00 00 01 	mov    BYTE PTR [rip+0x2ee1],0x1        # 4010 <__TMC_END__>
    112f:	5d                   	pop    rbp
    1130:	c3                   	ret    
    1131:	0f 1f 80 00 00 00 00 	nop    DWORD PTR [rax+0x0]
    1138:	c3                   	ret    
    1139:	0f 1f 80 00 00 00 00 	nop    DWORD PTR [rax+0x0]

0000000000001140 <frame_dummy>:
    1140:	e9 7b ff ff ff       	jmp    10c0 <register_tm_clones>

0000000000001145 <function>:
    1145:	55                   	push   rbp
    1146:	48 89 e5             	mov    rbp,rsp
    1149:	48 83 ec 20          	sub    rsp,0x20
    114d:	48 89 7d e8          	mov    QWORD PTR [rbp-0x18],rdi
    1151:	64 48 8b 04 25 28 00 	mov    rax,QWORD PTR fs:0x28
    1158:	00 00 
    115a:	48 89 45 f8          	mov    QWORD PTR [rbp-0x8],rax
    115e:	31 c0                	xor    eax,eax
    1160:	48 8b 55 e8          	mov    rdx,QWORD PTR [rbp-0x18]
    1164:	48 8d 45 f3          	lea    rax,[rbp-0xd]
    1168:	48 89 d6             	mov    rsi,rdx
    116b:	48 89 c7             	mov    rdi,rax
    116e:	e8 bd fe ff ff       	call   1030 <strcpy@plt>
    1173:	90                   	nop
    1174:	48 8b 45 f8          	mov    rax,QWORD PTR [rbp-0x8]
    1178:	64 48 33 04 25 28 00 	xor    rax,QWORD PTR fs:0x28
    117f:	00 00 
    1181:	74 05                	je     1188 <function+0x43>
    1183:	e8 b8 fe ff ff       	call   1040 <__stack_chk_fail@plt>
    1188:	c9                   	leave  
    1189:	c3                   	ret    

000000000000118a <main>:
    118a:	55                   	push   rbp
    118b:	48 89 e5             	mov    rbp,rsp
    118e:	48 81 ec 20 01 00 00 	sub    rsp,0x120
    1195:	64 48 8b 04 25 28 00 	mov    rax,QWORD PTR fs:0x28
    119c:	00 00 
    119e:	48 89 45 f8          	mov    QWORD PTR [rbp-0x8],rax
    11a2:	31 c0                	xor    eax,eax
    11a4:	c7 85 ec fe ff ff 00 	mov    DWORD PTR [rbp-0x114],0x0
    11ab:	00 00 00 
    11ae:	eb 17                	jmp    11c7 <main+0x3d>
    11b0:	8b 85 ec fe ff ff    	mov    eax,DWORD PTR [rbp-0x114]
    11b6:	48 98                	cdqe   
    11b8:	c6 84 05 f0 fe ff ff 	mov    BYTE PTR [rbp+rax*1-0x110],0x41
    11bf:	41 
    11c0:	83 85 ec fe ff ff 01 	add    DWORD PTR [rbp-0x114],0x1
    11c7:	81 bd ec fe ff ff fe 	cmp    DWORD PTR [rbp-0x114],0xfe
    11ce:	00 00 00 
    11d1:	7e dd                	jle    11b0 <main+0x26>
    11d3:	48 8d 85 f0 fe ff ff 	lea    rax,[rbp-0x110]
    11da:	48 89 c7             	mov    rdi,rax
    11dd:	e8 63 ff ff ff       	call   1145 <function>
    11e2:	90                   	nop
    11e3:	48 8b 45 f8          	mov    rax,QWORD PTR [rbp-0x8]
    11e7:	64 48 33 04 25 28 00 	xor    rax,QWORD PTR fs:0x28
    11ee:	00 00 
    11f0:	74 05                	je     11f7 <main+0x6d>
    11f2:	e8 49 fe ff ff       	call   1040 <__stack_chk_fail@plt>
    11f7:	c9                   	leave  
    11f8:	c3                   	ret    
    11f9:	0f 1f 80 00 00 00 00 	nop    DWORD PTR [rax+0x0]

0000000000001200 <__libc_csu_init>:
    1200:	41 57                	push   r15
    1202:	49 89 d7             	mov    r15,rdx
    1205:	41 56                	push   r14
    1207:	49 89 f6             	mov    r14,rsi
    120a:	41 55                	push   r13
    120c:	41 89 fd             	mov    r13d,edi
    120f:	41 54                	push   r12
    1211:	4c 8d 25 98 2b 00 00 	lea    r12,[rip+0x2b98]        # 3db0 <__frame_dummy_init_array_entry>
    1218:	55                   	push   rbp
    1219:	48 8d 2d 98 2b 00 00 	lea    rbp,[rip+0x2b98]        # 3db8 <__init_array_end>
    1220:	53                   	push   rbx
    1221:	4c 29 e5             	sub    rbp,r12
    1224:	48 83 ec 08          	sub    rsp,0x8
    1228:	e8 d3 fd ff ff       	call   1000 <_init>
    122d:	48 c1 fd 03          	sar    rbp,0x3
    1231:	74 1b                	je     124e <__libc_csu_init+0x4e>
    1233:	31 db                	xor    ebx,ebx
    1235:	0f 1f 00             	nop    DWORD PTR [rax]
    1238:	4c 89 fa             	mov    rdx,r15
    123b:	4c 89 f6             	mov    rsi,r14
    123e:	44 89 ef             	mov    edi,r13d
    1241:	41 ff 14 dc          	call   QWORD PTR [r12+rbx*8]
    1245:	48 83 c3 01          	add    rbx,0x1
    1249:	48 39 dd             	cmp    rbp,rbx
    124c:	75 ea                	jne    1238 <__libc_csu_init+0x38>
    124e:	48 83 c4 08          	add    rsp,0x8
    1252:	5b                   	pop    rbx
    1253:	5d                   	pop    rbp
    1254:	41 5c                	pop    r12
    1256:	41 5d                	pop    r13
    1258:	41 5e                	pop    r14
    125a:	41 5f                	pop    r15
    125c:	c3                   	ret    
    125d:	0f 1f 00             	nop    DWORD PTR [rax]

0000000000001260 <__libc_csu_fini>:
    1260:	c3                   	ret    

Disassembly of section .fini:

0000000000001264 <_fini>:
    1264:	48 83 ec 08          	sub    rsp,0x8
    1268:	48 83 c4 08          	add    rsp,0x8
    126c:	c3                   	ret    
